; Function Attrs: nofree norecurse nosync nounwind memory(write, argmem: readwrite, inaccessiblemem: none) uwtable
define noundef ptr @Gia_ManFraigMarkCos(ptr noundef readonly captures(none) %0, ptr noundef %1, i32 noundef %2) local_unnamed_addr #5 {
  %.0.val11 = load i64, ptr %1, align 4
  %4 = and i64 %.0.val11, 2147483648
  %.not.i12 = icmp eq i64 %4, 0
  %5 = and i64 %.0.val11, 536870911
  %6 = icmp eq i64 %5, 536870911
  %narrow.i.not13 = or i1 %.not.i12, %6
  br i1 %narrow.i.not13, label %._crit_edge, label %.lr.ph

.lr.ph:                                           ; preds = %3
  %.not7 = icmp eq i32 %2, 0
  %7 = getelementptr inbounds nuw i8, ptr %0, i64 176
  br i1 %.not7, label %.lr.ph.split.us, label %.lr.ph.split

.lr.ph.split.us:                                  ; preds = %.lr.ph, %.lr.ph.split.us
  %.014.us = phi ptr [ %8, %.lr.ph.split.us ], [ %1, %.lr.ph ]
  %8 = getelementptr inbounds i8, ptr %.014.us, i64 -12
  %.0.val.us = load i64, ptr %8, align 4
  %9 = and i64 %.0.val.us, 2147483648
  %.not.i.us = icmp eq i64 %9, 0
  %10 = and i64 %.0.val.us, 536870911
  %11 = icmp eq i64 %10, 536870911
  %narrow.i.not.us = or i1 %.not.i.us, %11
  br i1 %narrow.i.not.us, label %._crit_edge, label %.lr.ph.split.us, !llvm.loop !65

.lr.ph.split:                                     ; preds = %.lr.ph
  %12 = getelementptr i8, ptr %0, i64 32
  %13 = getelementptr inbounds nuw i8, ptr %0, i64 616
  %14 = load ptr, ptr %13, align 8, !tbaa !3
  %.val.i = load ptr, ptr %12, align 8, !tbaa !28
  %15 = ptrtoint ptr %.val.i to i64
  %.pre = load i32, ptr %7, align 8, !tbaa !30
  br label %16

16:                                               ; preds = %.lr.ph.split, %16
  %17 = phi i32 [ %.pre, %.lr.ph.split ], [ %27, %16 ]
  %.014 = phi ptr [ %1, %.lr.ph.split ], [ %33, %16 ]
  %18 = ptrtoint ptr %.014 to i64
  %19 = sub i64 %18, %15
  %20 = sdiv exact i64 %19, 12
  %sext.i = shl i64 %20, 32
  %21 = ashr exact i64 %sext.i, 30
  %22 = getelementptr inbounds i8, ptr %14, i64 %21
  store i32 %17, ptr %22, align 4, !tbaa !29
  %23 = load i64, ptr %.014, align 4
  %24 = and i64 %23, 536870911
  %25 = sub nsw i64 0, %24
  %26 = getelementptr inbounds %struct.Gia_Obj_t_, ptr %.014, i64 %25
  %27 = load i32, ptr %7, align 8, !tbaa !30
  %28 = ptrtoint ptr %26 to i64
  %29 = sub i64 %28, %15
  %30 = sdiv exact i64 %29, 12
  %sext.i9 = shl i64 %30, 32
  %31 = ashr exact i64 %sext.i9, 30
  %32 = getelementptr inbounds i8, ptr %14, i64 %31
  store i32 %27, ptr %32, align 4, !tbaa !29
  %33 = getelementptr inbounds i8, ptr %.014, i64 -12
  %.0.val = load i64, ptr %33, align 4
  %34 = and i64 %.0.val, 2147483648
  %.not.i = icmp eq i64 %34, 0
  %35 = and i64 %.0.val, 536870911
  %36 = icmp eq i64 %35, 536870911
  %narrow.i.not = or i1 %.not.i, %36
  br i1 %narrow.i.not, label %._crit_edge, label %16, !llvm.loop !65

._crit_edge:                                      ; preds = %16, %.lr.ph.split.us, %3
  %.0.lcssa = phi ptr [ %1, %3 ], [ %8, %.lr.ph.split.us ], [ %33, %16 ]
  ret ptr %.0.lcssa
}